target datalayout = "e-m:e-p270:32:32-p271:32:32-p272:64:64-i64:64-i128:128-f80:128-n8:16:32:64-S128"
target triple = "x86_64-pc-linux-gnu"

%struct.Proto = type { ptr, i8, i8, i8, i8, i8, i32, i32, i32, i32, i32, i32, i32, i32, i32, ptr, ptr, ptr, ptr, ptr, ptr, ptr, ptr, ptr }

; Function Attrs: nounwind uwtable
define hidden void @luaF_freeproto(ptr noundef %0, ptr noundef %1) #0 {
  %3 = alloca ptr, align 8
  %4 = alloca ptr, align 8
  store ptr %0, ptr %3, align 8, !tbaa !4
  store ptr %1, ptr %4, align 8, !tbaa !61
  %5 = load ptr, ptr %4, align 8, !tbaa !61
  %6 = getelementptr inbounds nuw %struct.Proto, ptr %5, i32 0, i32 4
  %7 = load i8, ptr %6, align 1, !tbaa !81
  %8 = zext i8 %7 to i32
  %9 = and i32 %8, 2
  %10 = icmp ne i32 %9, 0
  br i1 %10, label %39, label %11

11:                                               ; preds = %2
  %12 = load ptr, ptr %3, align 8, !tbaa !4
  %13 = load ptr, ptr %4, align 8, !tbaa !61
  %14 = getelementptr inbounds nuw %struct.Proto, ptr %13, i32 0, i32 16
  %15 = load ptr, ptr %14, align 8, !tbaa !72
  %16 = load ptr, ptr %4, align 8, !tbaa !61
  %17 = getelementptr inbounds nuw %struct.Proto, ptr %16, i32 0, i32 8
  %18 = load i32, ptr %17, align 8, !tbaa !73
  %19 = sext i32 %18 to i64
  %20 = mul i64 %19, 4
  call void @luaM_free_(ptr noundef %12, ptr noundef %15, i64 noundef %20)
  %21 = load ptr, ptr %3, align 8, !tbaa !4
  %22 = load ptr, ptr %4, align 8, !tbaa !61
  %23 = getelementptr inbounds nuw %struct.Proto, ptr %22, i32 0, i32 19
  %24 = load ptr, ptr %23, align 8, !tbaa !74
  %25 = load ptr, ptr %4, align 8, !tbaa !61
  %26 = getelementptr inbounds nuw %struct.Proto, ptr %25, i32 0, i32 9
  %27 = load i32, ptr %26, align 4, !tbaa !75
  %28 = sext i32 %27 to i64
  %29 = mul i64 %28, 1
  call void @luaM_free_(ptr noundef %21, ptr noundef %24, i64 noundef %29)
  %30 = load ptr, ptr %3, align 8, !tbaa !4
  %31 = load ptr, ptr %4, align 8, !tbaa !61
  %32 = getelementptr inbounds nuw %struct.Proto, ptr %31, i32 0, i32 20
  %33 = load ptr, ptr %32, align 8, !tbaa !76
  %34 = load ptr, ptr %4, align 8, !tbaa !61
  %35 = getelementptr inbounds nuw %struct.Proto, ptr %34, i32 0, i32 12
  %36 = load i32, ptr %35, align 8, !tbaa !77
  %37 = sext i32 %36 to i64
  %38 = mul i64 %37, 8
  call void @luaM_free_(ptr noundef %30, ptr noundef %33, i64 noundef %38)
  br label %39

39:                                               ; preds = %11, %2
  %40 = load ptr, ptr %3, align 8, !tbaa !4
  %41 = load ptr, ptr %4, align 8, !tbaa !61
  %42 = getelementptr inbounds nuw %struct.Proto, ptr %41, i32 0, i32 17
  %43 = load ptr, ptr %42, align 8, !tbaa !70
  %44 = load ptr, ptr %4, align 8, !tbaa !61
  %45 = getelementptr inbounds nuw %struct.Proto, ptr %44, i32 0, i32 10
  %46 = load i32, ptr %45, align 8, !tbaa !71
  %47 = sext i32 %46 to i64
  %48 = mul i64 %47, 8
  call void @luaM_free_(ptr noundef %40, ptr noundef %43, i64 noundef %48)
  %49 = load ptr, ptr %3, align 8, !tbaa !4
  %50 = load ptr, ptr %4, align 8, !tbaa !61
  %51 = getelementptr inbounds nuw %struct.Proto, ptr %50, i32 0, i32 15
  %52 = load ptr, ptr %51, align 8, !tbaa !62
  %53 = load ptr, ptr %4, align 8, !tbaa !61
  %54 = getelementptr inbounds nuw %struct.Proto, ptr %53, i32 0, i32 7
  %55 = load i32, ptr %54, align 4, !tbaa !69
  %56 = sext i32 %55 to i64
  %57 = mul i64 %56, 16
  call void @luaM_free_(ptr noundef %49, ptr noundef %52, i64 noundef %57)
  %58 = load ptr, ptr %3, align 8, !tbaa !4
  %59 = load ptr, ptr %4, align 8, !tbaa !61
  %60 = getelementptr inbounds nuw %struct.Proto, ptr %59, i32 0, i32 21
  %61 = load ptr, ptr %60, align 8, !tbaa !83
  %62 = load ptr, ptr %4, align 8, !tbaa !61
  %63 = getelementptr inbounds nuw %struct.Proto, ptr %62, i32 0, i32 11
  %64 = load i32, ptr %63, align 4, !tbaa !84
  %65 = sext i32 %64 to i64
  %66 = mul i64 %65, 16
  call void @luaM_free_(ptr noundef %58, ptr noundef %61, i64 noundef %66)
  %67 = load ptr, ptr %3, align 8, !tbaa !4
  %68 = load ptr, ptr %4, align 8, !tbaa !61
  %69 = getelementptr inbounds nuw %struct.Proto, ptr %68, i32 0, i32 18
  %70 = load ptr, ptr %69, align 8, !tbaa !78
  %71 = load ptr, ptr %4, align 8, !tbaa !61
  %72 = getelementptr inbounds nuw %struct.Proto, ptr %71, i32 0, i32 6
  %73 = load i32, ptr %72, align 8, !tbaa !79
  %74 = sext i32 %73 to i64
  %75 = mul i64 %74, 16
  call void @luaM_free_(ptr noundef %67, ptr noundef %70, i64 noundef %75)
  %76 = load ptr, ptr %3, align 8, !tbaa !4
  %77 = load ptr, ptr %4, align 8, !tbaa !61
  call void @luaM_free_(ptr noundef %76, ptr noundef %77, i64 noundef 128)
  ret void
}