; Function Attrs: nounwind uwtable
define hidden void @luaF_freeproto(ptr noundef %0, ptr noundef %1) local_unnamed_addr #0 {
  %3 = getelementptr inbounds nuw i8, ptr %1, i64 11
  %4 = load i8, ptr %3, align 1, !tbaa !53
  %5 = and i8 %4, 2
  %.not = icmp eq i8 %5, 0
  br i1 %.not, label %6, label %24

6:                                                ; preds = %2
  %7 = getelementptr inbounds nuw i8, ptr %1, i64 64
  %8 = load ptr, ptr %7, align 8, !tbaa !62
  %9 = getelementptr inbounds nuw i8, ptr %1, i64 24
  %10 = load i32, ptr %9, align 8, !tbaa !59
  %11 = sext i32 %10 to i64
  %12 = shl nsw i64 %11, 2
  tail call void @luaM_free_(ptr noundef %0, ptr noundef %8, i64 noundef %12) #7
  %13 = getelementptr inbounds nuw i8, ptr %1, i64 88
  %14 = load ptr, ptr %13, align 8, !tbaa !63
  %15 = getelementptr inbounds nuw i8, ptr %1, i64 28
  %16 = load i32, ptr %15, align 4, !tbaa !60
  %17 = sext i32 %16 to i64
  tail call void @luaM_free_(ptr noundef %0, ptr noundef %14, i64 noundef %17) #7
  %18 = getelementptr inbounds nuw i8, ptr %1, i64 96
  %19 = load ptr, ptr %18, align 8, !tbaa !64
  %20 = getelementptr inbounds nuw i8, ptr %1, i64 40
  %21 = load i32, ptr %20, align 8, !tbaa !61
  %22 = sext i32 %21 to i64
  %23 = shl nsw i64 %22, 3
  tail call void @luaM_free_(ptr noundef %0, ptr noundef %19, i64 noundef %23) #7
  br label %24

24:                                               ; preds = %6, %2
  %25 = getelementptr inbounds nuw i8, ptr %1, i64 72
  %26 = load ptr, ptr %25, align 8, !tbaa !65
  %27 = getelementptr inbounds nuw i8, ptr %1, i64 32
  %28 = load i32, ptr %27, align 8, !tbaa !55
  %29 = sext i32 %28 to i64
  %30 = shl nsw i64 %29, 3
  tail call void @luaM_free_(ptr noundef %0, ptr noundef %26, i64 noundef %30) #7
  %31 = getelementptr inbounds nuw i8, ptr %1, i64 56
  %32 = load ptr, ptr %31, align 8, !tbaa !66
  %33 = getelementptr inbounds nuw i8, ptr %1, i64 20
  %34 = load i32, ptr %33, align 4, !tbaa !56
  %35 = sext i32 %34 to i64
  %36 = shl nsw i64 %35, 4
  tail call void @luaM_free_(ptr noundef %0, ptr noundef %32, i64 noundef %36) #7
  %37 = getelementptr inbounds nuw i8, ptr %1, i64 104
  %38 = load ptr, ptr %37, align 8, !tbaa !67
  %39 = getelementptr inbounds nuw i8, ptr %1, i64 36
  %40 = load i32, ptr %39, align 4, !tbaa !57
  %41 = sext i32 %40 to i64
  %42 = shl nsw i64 %41, 4
  tail call void @luaM_free_(ptr noundef %0, ptr noundef %38, i64 noundef %42) #7
  %43 = getelementptr inbounds nuw i8, ptr %1, i64 80
  %44 = load ptr, ptr %43, align 8, !tbaa !68
  %45 = getelementptr inbounds nuw i8, ptr %1, i64 16
  %46 = load i32, ptr %45, align 8, !tbaa !58
  %47 = sext i32 %46 to i64
  %48 = shl nsw i64 %47, 4
  tail call void @luaM_free_(ptr noundef %0, ptr noundef %44, i64 noundef %48) #7
  tail call void @luaM_free_(ptr noundef %0, ptr noundef nonnull %1, i64 noundef 128) #7
  ret void
}